target datalayout = "e-m:e-p270:32:32-p271:32:32-p272:64:64-i64:64-i128:128-f80:128-n8:16:32:64-S128"
target triple = "x86_64-pc-linux-gnu"

%struct.pmix_object_t = type { %union.pthread_mutex_t, ptr, i32, %struct.pmix_tma }
%union.pthread_mutex_t = type { %struct.__pthread_mutex_s }
%struct.__pthread_mutex_s = type { i32, i32, i32, i32, i32, i16, i16, %struct.__pthread_internal_list }
%struct.__pthread_internal_list = type { ptr, ptr }
%struct.pmix_tma = type { ptr, ptr, ptr, ptr, ptr, ptr, ptr, ptr }
%struct.pmix_class_t = type { ptr, ptr, ptr, ptr, i32, i32, ptr, ptr, i64 }

@pmix_class_init_epoch = external global i32, align 4

; Function Attrs: inlinehint nounwind uwtable
define internal void @pmix_obj_run_constructors(ptr noundef %0) #3 {
  %2 = alloca ptr, align 8
  %3 = alloca ptr, align 8
  store ptr %0, ptr %2, align 8, !tbaa !89
  call void @llvm.lifetime.start.p0(i64 8, ptr %3) #10
  %4 = load ptr, ptr %2, align 8, !tbaa !89
  %5 = getelementptr inbounds nuw %struct.pmix_object_t, ptr %4, i32 0, i32 1
  %6 = load ptr, ptr %5, align 8, !tbaa !104
  %7 = getelementptr inbounds nuw %struct.pmix_class_t, ptr %6, i32 0, i32 6
  %8 = load ptr, ptr %7, align 8, !tbaa !118
  store ptr %8, ptr %3, align 8, !tbaa !12
  br label %9

9:                                                ; preds = %13, %1
  %10 = load ptr, ptr %3, align 8, !tbaa !12
  %11 = load ptr, ptr %10, align 8, !tbaa !12
  %12 = icmp ne ptr null, %11
  br i1 %12, label %13, label %19

13:                                               ; preds = %9
  %14 = load ptr, ptr %3, align 8, !tbaa !12
  %15 = load ptr, ptr %14, align 8, !tbaa !12
  %16 = load ptr, ptr %2, align 8, !tbaa !89
  call void %15(ptr noundef %16)
  %17 = load ptr, ptr %3, align 8, !tbaa !12
  %18 = getelementptr inbounds nuw ptr, ptr %17, i32 1
  store ptr %18, ptr %3, align 8, !tbaa !12
  br label %9, !llvm.loop !119

19:                                               ; preds = %9
  call void @llvm.lifetime.end.p0(i64 8, ptr %3) #10
  ret void
}

; Function Attrs: inlinehint nounwind uwtable
define internal ptr @pmix_tma_malloc(ptr noundef %0, i64 noundef %1) #3 {
  %3 = alloca ptr, align 8
  %4 = alloca ptr, align 8
  %5 = alloca i64, align 8
  store ptr %0, ptr %4, align 8, !tbaa !99
  store i64 %1, ptr %5, align 8, !tbaa !116
  %6 = load ptr, ptr %4, align 8, !tbaa !99
  %7 = icmp ne ptr null, %6
  br i1 %7, label %8, label %15

8:                                                ; preds = %2
  %9 = load ptr, ptr %4, align 8, !tbaa !99
  %10 = getelementptr inbounds nuw %struct.pmix_tma, ptr %9, i32 0, i32 0
  %11 = load ptr, ptr %10, align 8, !tbaa !117
  %12 = load ptr, ptr %4, align 8, !tbaa !99
  %13 = load i64, ptr %5, align 8, !tbaa !116
  %14 = call ptr %11(ptr noundef %12, i64 noundef %13)
  store ptr %14, ptr %3, align 8
  br label %18

15:                                               ; preds = %2
  %16 = load i64, ptr %5, align 8, !tbaa !116
  %17 = call noalias ptr @malloc(i64 noundef %16) #13
  store ptr %17, ptr %3, align 8
  br label %18

18:                                               ; preds = %15, %8
  %19 = load ptr, ptr %3, align 8
  ret ptr %19
}

; Function Attrs: inlinehint nounwind uwtable
define internal ptr @pmix_obj_new_tma(ptr noundef %0, ptr noundef %1) #3 {
  %3 = alloca ptr, align 8
  %4 = alloca ptr, align 8
  %5 = alloca ptr, align 8
  store ptr %0, ptr %3, align 8, !tbaa !98
  store ptr %1, ptr %4, align 8, !tbaa !99
  call void @llvm.lifetime.start.p0(i64 8, ptr %5) #10
  %6 = load ptr, ptr %4, align 8, !tbaa !99
  %7 = load ptr, ptr %3, align 8, !tbaa !98
  %8 = getelementptr inbounds nuw %struct.pmix_class_t, ptr %7, i32 0, i32 8
  %9 = load i64, ptr %8, align 8, !tbaa !101
  %10 = call ptr @pmix_tma_malloc(ptr noundef %6, i64 noundef %9)
  store ptr %10, ptr %5, align 8, !tbaa !89
  %11 = load i32, ptr @pmix_class_init_epoch, align 4, !tbaa !3
  %12 = load ptr, ptr %3, align 8, !tbaa !98
  %13 = getelementptr inbounds nuw %struct.pmix_class_t, ptr %12, i32 0, i32 4
  %14 = load i32, ptr %13, align 8, !tbaa !103
  %15 = icmp ne i32 %11, %14
  br i1 %15, label %16, label %18

16:                                               ; preds = %2
  %17 = load ptr, ptr %3, align 8, !tbaa !98
  call void @pmix_class_initialize(ptr noundef %17)
  br label %18

18:                                               ; preds = %16, %2
  %19 = load ptr, ptr %5, align 8, !tbaa !89
  %20 = icmp ne ptr null, %19
  br i1 %20, label %21, label %60

21:                                               ; preds = %18
  %22 = load ptr, ptr %5, align 8, !tbaa !89
  %23 = getelementptr inbounds nuw %struct.pmix_object_t, ptr %22, i32 0, i32 0
  %24 = call i32 @pthread_mutex_init(ptr noundef %23, ptr noundef null) #10
  %25 = load ptr, ptr %3, align 8, !tbaa !98
  %26 = load ptr, ptr %5, align 8, !tbaa !89
  %27 = getelementptr inbounds nuw %struct.pmix_object_t, ptr %26, i32 0, i32 1
  store ptr %25, ptr %27, align 8, !tbaa !104
  %28 = load ptr, ptr %5, align 8, !tbaa !89
  %29 = getelementptr inbounds nuw %struct.pmix_object_t, ptr %28, i32 0, i32 2
  store i32 1, ptr %29, align 8, !tbaa !105
  %30 = load ptr, ptr %4, align 8, !tbaa !99
  %31 = icmp eq ptr null, %30
  br i1 %31, label %32, label %54

32:                                               ; preds = %21
  %33 = load ptr, ptr %5, align 8, !tbaa !89
  %34 = getelementptr inbounds nuw %struct.pmix_object_t, ptr %33, i32 0, i32 3
  %35 = getelementptr inbounds nuw %struct.pmix_tma, ptr %34, i32 0, i32 0
  store ptr null, ptr %35, align 8, !tbaa !106
  %36 = load ptr, ptr %5, align 8, !tbaa !89
  %37 = getelementptr inbounds nuw %struct.pmix_object_t, ptr %36, i32 0, i32 3
  %38 = getelementptr inbounds nuw %struct.pmix_tma, ptr %37, i32 0, i32 1
  store ptr null, ptr %38, align 8, !tbaa !107
  %39 = load ptr, ptr %5, align 8, !tbaa !89
  %40 = getelementptr inbounds nuw %struct.pmix_object_t, ptr %39, i32 0, i32 3
  %41 = getelementptr inbounds nuw %struct.pmix_tma, ptr %40, i32 0, i32 2
  store ptr null, ptr %41, align 8, !tbaa !108
  %42 = load ptr, ptr %5, align 8, !tbaa !89
  %43 = getelementptr inbounds nuw %struct.pmix_object_t, ptr %42, i32 0, i32 3
  %44 = getelementptr inbounds nuw %struct.pmix_tma, ptr %43, i32 0, i32 3
  store ptr null, ptr %44, align 8, !tbaa !109
  %45 = load ptr, ptr %5, align 8, !tbaa !89
  %46 = getelementptr inbounds nuw %struct.pmix_object_t, ptr %45, i32 0, i32 3
  %47 = getelementptr inbounds nuw %struct.pmix_tma, ptr %46, i32 0, i32 5
  store ptr null, ptr %47, align 8, !tbaa !91
  %48 = load ptr, ptr %5, align 8, !tbaa !89
  %49 = getelementptr inbounds nuw %struct.pmix_object_t, ptr %48, i32 0, i32 3
  %50 = getelementptr inbounds nuw %struct.pmix_tma, ptr %49, i32 0, i32 6
  store ptr null, ptr %50, align 8, !tbaa !110
  %51 = load ptr, ptr %5, align 8, !tbaa !89
  %52 = getelementptr inbounds nuw %struct.pmix_object_t, ptr %51, i32 0, i32 3
  %53 = getelementptr inbounds nuw %struct.pmix_tma, ptr %52, i32 0, i32 7
  store ptr null, ptr %53, align 8, !tbaa !111
  br label %58

54:                                               ; preds = %21
  %55 = load ptr, ptr %5, align 8, !tbaa !89
  %56 = getelementptr inbounds nuw %struct.pmix_object_t, ptr %55, i32 0, i32 3
  %57 = load ptr, ptr %4, align 8, !tbaa !99
  call void @llvm.memcpy.p0.p0.i64(ptr align 8 %56, ptr align 8 %57, i64 64, i1 false), !tbaa.struct !112
  br label %58

58:                                               ; preds = %54, %32
  %59 = load ptr, ptr %5, align 8, !tbaa !89
  call void @pmix_obj_run_constructors(ptr noundef %59)
  br label %60

60:                                               ; preds = %58, %18
  %61 = load ptr, ptr %5, align 8, !tbaa !89
  call void @llvm.lifetime.end.p0(i64 8, ptr %5) #10
  ret ptr %61
}